target datalayout = "e-m:e-p270:32:32-p271:32:32-p272:64:64-i64:64-i128:128-f80:128-n8:16:32:64-S128"
target triple = "x86_64-pc-linux-gnu"

%struct.lzma_next_coder_s = type { ptr, i64, i64, ptr, ptr, ptr, ptr, ptr, ptr, ptr }
%struct.lzma_stream = type { ptr, i64, i64, ptr, i64, i64, ptr, ptr, ptr, ptr, ptr, ptr, i64, i64, i64, i64, i32, i32 }
%struct.lzma_internal_s = type { %struct.lzma_next_coder_s, i32, i64, [5 x i8], i8 }

; Function Attrs: nounwind uwtable
define dso_local i32 @lzma_block_decoder(ptr noundef %0, ptr noundef %1) #0 {
  %3 = alloca i32, align 4
  %4 = alloca ptr, align 8
  %5 = alloca ptr, align 8
  %6 = alloca i32, align 4
  %7 = alloca i32, align 4
  %8 = alloca i32, align 4
  store ptr %0, ptr %4, align 8, !tbaa !9
  store ptr %1, ptr %5, align 8, !tbaa !9
  br label %9

9:                                                ; preds = %2
  br label %10

10:                                               ; preds = %9
  call void @llvm.lifetime.start.p0(i64 4, ptr %6) #10
  %11 = load ptr, ptr %4, align 8, !tbaa !9
  %12 = call i32 @lzma_strm_init(ptr noundef %11)
  store i32 %12, ptr %6, align 4, !tbaa !43
  %13 = load i32, ptr %6, align 4, !tbaa !43
  %14 = icmp ne i32 %13, 0
  br i1 %14, label %15, label %17

15:                                               ; preds = %10
  %16 = load i32, ptr %6, align 4, !tbaa !43
  store i32 %16, ptr %3, align 4
  store i32 1, ptr %7, align 4
  br label %18

17:                                               ; preds = %10
  store i32 0, ptr %7, align 4
  br label %18

18:                                               ; preds = %17, %15
  call void @llvm.lifetime.end.p0(i64 4, ptr %6) #10
  %19 = load i32, ptr %7, align 4
  switch i32 %19, label %53 [
    i32 0, label %20
    i32 1, label %51
  ]

20:                                               ; preds = %18
  br label %21

21:                                               ; preds = %20
  call void @llvm.lifetime.start.p0(i64 4, ptr %8) #10
  %22 = load ptr, ptr %4, align 8, !tbaa !9
  %23 = getelementptr inbounds nuw %struct.lzma_stream, ptr %22, i32 0, i32 7
  %24 = load ptr, ptr %23, align 8, !tbaa !52
  %25 = getelementptr inbounds nuw %struct.lzma_internal_s, ptr %24, i32 0, i32 0
  %26 = load ptr, ptr %4, align 8, !tbaa !9
  %27 = getelementptr inbounds nuw %struct.lzma_stream, ptr %26, i32 0, i32 6
  %28 = load ptr, ptr %27, align 8, !tbaa !55
  %29 = load ptr, ptr %5, align 8, !tbaa !9
  %30 = call i32 @lzma_block_decoder_init(ptr noundef %25, ptr noundef %28, ptr noundef %29)
  store i32 %30, ptr %8, align 4, !tbaa !43
  %31 = load i32, ptr %8, align 4, !tbaa !43
  %32 = icmp ne i32 %31, 0
  br i1 %32, label %33, label %36

33:                                               ; preds = %21
  %34 = load ptr, ptr %4, align 8, !tbaa !9
  call void @lzma_end(ptr noundef %34) #10
  %35 = load i32, ptr %8, align 4, !tbaa !43
  store i32 %35, ptr %3, align 4
  store i32 1, ptr %7, align 4
  br label %37

36:                                               ; preds = %21
  store i32 0, ptr %7, align 4
  br label %37

37:                                               ; preds = %36, %33
  call void @llvm.lifetime.end.p0(i64 4, ptr %8) #10
  %38 = load i32, ptr %7, align 4
  switch i32 %38, label %53 [
    i32 0, label %39
    i32 1, label %51
  ]

39:                                               ; preds = %37
  br label %40

40:                                               ; preds = %39
  %41 = load ptr, ptr %4, align 8, !tbaa !9
  %42 = getelementptr inbounds nuw %struct.lzma_stream, ptr %41, i32 0, i32 7
  %43 = load ptr, ptr %42, align 8, !tbaa !52
  %44 = getelementptr inbounds nuw %struct.lzma_internal_s, ptr %43, i32 0, i32 3
  %45 = getelementptr inbounds [5 x i8], ptr %44, i64 0, i64 0
  store i8 1, ptr %45, align 8, !tbaa !46
  %46 = load ptr, ptr %4, align 8, !tbaa !9
  %47 = getelementptr inbounds nuw %struct.lzma_stream, ptr %46, i32 0, i32 7
  %48 = load ptr, ptr %47, align 8, !tbaa !52
  %49 = getelementptr inbounds nuw %struct.lzma_internal_s, ptr %48, i32 0, i32 3
  %50 = getelementptr inbounds [5 x i8], ptr %49, i64 0, i64 3
  store i8 1, ptr %50, align 1, !tbaa !46
  store i32 0, ptr %3, align 4
  br label %51

51:                                               ; preds = %40, %37, %18
  %52 = load i32, ptr %3, align 4
  ret i32 %52

53:                                               ; preds = %37, %18
  unreachable
}